; ModuleID = '43/1089.c'
source_filename = "43/1089.c"
target datalayout = "e-m:e-p270:32:32-p271:32:32-p272:64:64-i64:64-f80:128-n8:16:32:64-S128"
target triple = "x86_64-pc-linux-gnu"

@.str = private unnamed_addr constant [3 x i8] c"%d\00", align 1
@.str.1 = private unnamed_addr constant [7 x i8] c"%d %d\0A\00", align 1

; Function Attrs: noinline nounwind uwtable
define dso_local i32 @main() #0 {
  %1 = alloca i32, align 4
  %2 = alloca i32, align 4
  %3 = alloca i32, align 4
  %4 = alloca i32, align 4
  %5 = alloca i32, align 4
  %6 = alloca i32, align 4
  %7 = alloca i32, align 4
  %8 = alloca i32, align 4
  %9 = alloca i32, align 4
  %10 = alloca i32, align 4
  store i32 0, i32* %1, align 4
  %11 = call i32 (i8*, ...) @__isoc99_scanf(i8* getelementptr inbounds ([3 x i8], [3 x i8]* @.str, i64 0, i64 0), i32* %2)
  store i32 3, i32* %3, align 4
  br label %12

12:                                               ; preds = %92, %0
  %13 = load i32, i32* %3, align 4
  %14 = load i32, i32* %2, align 4
  %15 = sdiv i32 %14, 2
  %16 = icmp sle i32 %13, %15
  br i1 %16, label %17, label %95

17:                                               ; preds = %12
  store i32 0, i32* %7, align 4
  store i32 0, i32* %8, align 4
  %18 = load i32, i32* %3, align 4
  %19 = sitofp i32 %18 to double
  %20 = call double @sqrt(double %19) #3
  %21 = fadd double %20, 1.000000e+00
  %22 = fptosi double %21 to i32
  store i32 %22, i32* %6, align 4
  %23 = load i32, i32* %2, align 4
  %24 = load i32, i32* %3, align 4
  %25 = sub nsw i32 %23, %24
  %26 = sitofp i32 %25 to double
  %27 = call double @sqrt(double %26) #3
  %28 = fadd double %27, 1.000000e+00
  %29 = fptosi double %28 to i32
  store i32 %29, i32* %9, align 4
  store i32 2, i32* %5, align 4
  br label %30

30:                                               ; preds = %49, %17
  %31 = load i32, i32* %5, align 4
  %32 = load i32, i32* %6, align 4
  %33 = icmp sle i32 %31, %32
  br i1 %33, label %34, label %38

34:                                               ; preds = %30
  %35 = load i32, i32* %5, align 4
  %36 = load i32, i32* %3, align 4
  %37 = icmp ne i32 %35, %36
  br label %38

38:                                               ; preds = %34, %30
  %39 = phi i1 [ false, %30 ], [ %37, %34 ]
  br i1 %39, label %40, label %52

40:                                               ; preds = %38
  %41 = load i32, i32* %3, align 4
  %42 = load i32, i32* %5, align 4
  %43 = srem i32 %41, %42
  %44 = icmp eq i32 %43, 0
  br i1 %44, label %45, label %48

45:                                               ; preds = %40
  %46 = load i32, i32* %7, align 4
  %47 = sub nsw i32 %46, 1
  store i32 %47, i32* %7, align 4
  br label %48

48:                                               ; preds = %45, %40
  br label %49

49:                                               ; preds = %48
  %50 = load i32, i32* %5, align 4
  %51 = add nsw i32 %50, 1
  store i32 %51, i32* %5, align 4
  br label %30

52:                                               ; preds = %38
  store i32 2, i32* %5, align 4
  br label %53

53:                                               ; preds = %76, %52
  %54 = load i32, i32* %5, align 4
  %55 = load i32, i32* %9, align 4
  %56 = icmp sle i32 %54, %55
  br i1 %56, label %57, label %63

57:                                               ; preds = %53
  %58 = load i32, i32* %5, align 4
  %59 = load i32, i32* %2, align 4
  %60 = load i32, i32* %3, align 4
  %61 = sub nsw i32 %59, %60
  %62 = icmp ne i32 %58, %61
  br label %63

63:                                               ; preds = %57, %53
  %64 = phi i1 [ false, %53 ], [ %62, %57 ]
  br i1 %64, label %65, label %79

65:                                               ; preds = %63
  %66 = load i32, i32* %2, align 4
  %67 = load i32, i32* %3, align 4
  %68 = sub nsw i32 %66, %67
  %69 = load i32, i32* %5, align 4
  %70 = srem i32 %68, %69
  %71 = icmp eq i32 %70, 0
  br i1 %71, label %72, label %75

72:                                               ; preds = %65
  %73 = load i32, i32* %8, align 4
  %74 = sub nsw i32 %73, 1
  store i32 %74, i32* %8, align 4
  br label %75

75:                                               ; preds = %72, %65
  br label %76

76:                                               ; preds = %75
  %77 = load i32, i32* %5, align 4
  %78 = add nsw i32 %77, 1
  store i32 %78, i32* %5, align 4
  br label %53

79:                                               ; preds = %63
  %80 = load i32, i32* %7, align 4
  %81 = icmp eq i32 %80, 0
  br i1 %81, label %82, label %91

82:                                               ; preds = %79
  %83 = load i32, i32* %8, align 4
  %84 = icmp eq i32 %83, 0
  br i1 %84, label %85, label %91

85:                                               ; preds = %82
  %86 = load i32, i32* %3, align 4
  %87 = load i32, i32* %2, align 4
  %88 = load i32, i32* %3, align 4
  %89 = sub nsw i32 %87, %88
  %90 = call i32 (i8*, ...) @printf(i8* getelementptr inbounds ([7 x i8], [7 x i8]* @.str.1, i64 0, i64 0), i32 %86, i32 %89)
  br label %91

91:                                               ; preds = %85, %82, %79
  br label %92

92:                                               ; preds = %91
  %93 = load i32, i32* %3, align 4
  %94 = add nsw i32 %93, 1
  store i32 %94, i32* %3, align 4
  br label %12

95:                                               ; preds = %12
  ret i32 0
}

declare dso_local i32 @__isoc99_scanf(i8*, ...) #1

; Function Attrs: nounwind
declare dso_local double @sqrt(double) #2

declare dso_local i32 @printf(i8*, ...) #1


!llvm.module.flags = !{!0}
!llvm.ident = !{!1}

!0 = !{i32 1, !"wchar_size", i32 4}
!1 = !{!"clang version 10.0.0-4ubuntu1 "}
